target datalayout = "e-m:e-p270:32:32-p271:32:32-p272:64:64-i64:64-i128:128-f80:128-n8:16:32:64-S128"
target triple = "x86_64-pc-linux-gnu"

%"class.cv::Mat" = type { i32, i32, i32, i32, ptr, ptr, ptr, ptr, ptr, ptr, %"struct.cv::MatSize", %"struct.cv::MatStep" }
%"struct.cv::MatSize" = type { ptr }
%"struct.cv::MatStep" = type { ptr, [2 x i64] }
%"class.cv::videostab::WeightingDeblurer" = type { %"class.cv::videostab::DeblurerBase", float, %"class.cv::Mat_", %"class.cv::Mat_", %"class.cv::Mat_", %"class.cv::Mat_" }
%"class.cv::videostab::DeblurerBase" = type { ptr, i32, ptr, ptr, ptr }
%"class.cv::Mat_" = type { %"class.cv::Mat" }

; Function Attrs: mustprogress nounwind uwtable
define linkonce_odr hidden void @_ZN2cv9videostab12DeblurerBaseD2Ev(ptr noundef nonnull align 8 dereferenceable(40) %0) unnamed_addr #9 comdat align 2 {
  %2 = alloca ptr, align 8
  store ptr %0, ptr %2, align 8, !tbaa !35
  ret void
}

; Function Attrs: mustprogress nounwind uwtable
define linkonce_odr hidden void @_ZN2cv9videostab17WeightingDeblurer14setSensitivityEf(ptr noundef nonnull align 8 dereferenceable(432) %0, float noundef %1) #9 comdat align 2 {
  %3 = alloca ptr, align 8
  %4 = alloca float, align 4
  store ptr %0, ptr %3, align 8, !tbaa !31
  store float %1, ptr %4, align 4, !tbaa !53
  %5 = load ptr, ptr %3, align 8
  %6 = load float, ptr %4, align 4, !tbaa !53
  %7 = getelementptr inbounds nuw %"class.cv::videostab::WeightingDeblurer", ptr %5, i32 0, i32 1
  store float %6, ptr %7, align 8, !tbaa !55
  ret void
}

; Function Attrs: inlinehint mustprogress nounwind uwtable
define linkonce_odr hidden void @_ZN2cv4Mat_IfEC2Ev(ptr noundef nonnull align 8 dereferenceable(96) %0) unnamed_addr #7 comdat align 2 {
  %2 = alloca ptr, align 8
  store ptr %0, ptr %2, align 8, !tbaa !44
  %3 = load ptr, ptr %2, align 8
  call void @_ZN2cv3MatC2Ev(ptr noundef nonnull align 8 dereferenceable(96) %3) #3
  %4 = getelementptr inbounds nuw %"class.cv::Mat", ptr %3, i32 0, i32 0
  %5 = load i32, ptr %4, align 8, !tbaa !46
  %6 = and i32 %5, -4096
  %7 = add nsw i32 %6, 5
  %8 = getelementptr inbounds nuw %"class.cv::Mat", ptr %3, i32 0, i32 0
  store i32 %7, ptr %8, align 8, !tbaa !46
  ret void
}

; Function Attrs: mustprogress nounwind uwtable
define linkonce_odr hidden void @_ZN2cv9videostab12DeblurerBaseC2Ev(ptr noundef nonnull align 8 dereferenceable(40) %0) unnamed_addr #9 comdat align 2 {
  %2 = alloca ptr, align 8
  store ptr %0, ptr %2, align 8, !tbaa !35
  %3 = load ptr, ptr %2, align 8
  store ptr getelementptr inbounds inrange(-16, 88) ({ [13 x ptr] }, ptr @_ZTVN2cv9videostab12DeblurerBaseE, i32 0, i32 0, i32 2), ptr %3, align 8, !tbaa !33
  %4 = getelementptr inbounds nuw %"class.cv::videostab::DeblurerBase", ptr %3, i32 0, i32 1
  store i32 0, ptr %4, align 8, !tbaa !37
  %5 = getelementptr inbounds nuw %"class.cv::videostab::DeblurerBase", ptr %3, i32 0, i32 2
  store ptr null, ptr %5, align 8, !tbaa !41
  %6 = getelementptr inbounds nuw %"class.cv::videostab::DeblurerBase", ptr %3, i32 0, i32 3
  store ptr null, ptr %6, align 8, !tbaa !42
  %7 = getelementptr inbounds nuw %"class.cv::videostab::DeblurerBase", ptr %3, i32 0, i32 4
  store ptr null, ptr %7, align 8, !tbaa !43
  ret void
}

; Function Attrs: mustprogress uwtable
define void @_ZN2cv9videostab17WeightingDeblurerC2Ev(ptr noundef nonnull align 8 dereferenceable(432) %0) unnamed_addr #4 align 2 personality ptr @__gxx_personality_v0 {
  %2 = alloca ptr, align 8
  %3 = alloca ptr, align 8
  %4 = alloca i32, align 4
  store ptr %0, ptr %2, align 8, !tbaa !31
  %5 = load ptr, ptr %2, align 8
  call void @_ZN2cv9videostab12DeblurerBaseC2Ev(ptr noundef nonnull align 8 dereferenceable(40) %5)
  store ptr getelementptr inbounds inrange(-16, 88) ({ [13 x ptr] }, ptr @_ZTVN2cv9videostab17WeightingDeblurerE, i32 0, i32 0, i32 2), ptr %5, align 8, !tbaa !33
  %6 = getelementptr inbounds nuw %"class.cv::videostab::WeightingDeblurer", ptr %5, i32 0, i32 2
  call void @_ZN2cv4Mat_IfEC2Ev(ptr noundef nonnull align 8 dereferenceable(96) %6) #3
  %7 = getelementptr inbounds nuw %"class.cv::videostab::WeightingDeblurer", ptr %5, i32 0, i32 3
  call void @_ZN2cv4Mat_IfEC2Ev(ptr noundef nonnull align 8 dereferenceable(96) %7) #3
  %8 = getelementptr inbounds nuw %"class.cv::videostab::WeightingDeblurer", ptr %5, i32 0, i32 4
  call void @_ZN2cv4Mat_IfEC2Ev(ptr noundef nonnull align 8 dereferenceable(96) %8) #3
  %9 = getelementptr inbounds nuw %"class.cv::videostab::WeightingDeblurer", ptr %5, i32 0, i32 5
  call void @_ZN2cv4Mat_IfEC2Ev(ptr noundef nonnull align 8 dereferenceable(96) %9) #3
  invoke void @_ZN2cv9videostab17WeightingDeblurer14setSensitivityEf(ptr noundef nonnull align 8 dereferenceable(432) %5, float noundef 0x3FB99999A0000000)
          to label %10 unwind label %11

10:                                               ; preds = %1
  ret void

11:                                               ; preds = %1
  %12 = landingpad { ptr, i32 }
          cleanup
  %13 = extractvalue { ptr, i32 } %12, 0
  store ptr %13, ptr %3, align 8
  %14 = extractvalue { ptr, i32 } %12, 1
  store i32 %14, ptr %4, align 4
  call void @_ZN2cv3MatD2Ev(ptr noundef nonnull align 8 dereferenceable(96) %9) #3
  call void @_ZN2cv3MatD2Ev(ptr noundef nonnull align 8 dereferenceable(96) %8) #3
  call void @_ZN2cv3MatD2Ev(ptr noundef nonnull align 8 dereferenceable(96) %7) #3
  call void @_ZN2cv3MatD2Ev(ptr noundef nonnull align 8 dereferenceable(96) %6) #3
  call void @_ZN2cv9videostab12DeblurerBaseD2Ev(ptr noundef nonnull align 8 dereferenceable(40) %5) #3
  br label %15

15:                                               ; preds = %11
  %16 = load ptr, ptr %3, align 8
  %17 = load i32, ptr %4, align 4
  %18 = insertvalue { ptr, i32 } poison, ptr %16, 0
  %19 = insertvalue { ptr, i32 } %18, i32 %17, 1
  resume { ptr, i32 } %19
}