; Function Attrs: mustprogress nounwind uwtable
define void @_ZN2cv9videostab17WeightingDeblurerC2Ev(ptr noundef nonnull align 8 dereferenceable(432) initializes((0, 12), (16, 40)) %0) unnamed_addr #7 align 2 personality ptr @__gxx_personality_v0 {
  %2 = getelementptr inbounds nuw i8, ptr %0, i64 8
  store i32 0, ptr %2, align 8, !tbaa !20
  %3 = getelementptr inbounds nuw i8, ptr %0, i64 16
  tail call void @llvm.memset.p0.i64(ptr noundef nonnull align 8 dereferenceable(24) %3, i8 0, i64 24, i1 false)
  store ptr getelementptr inbounds nuw inrange(-16, 88) (i8, ptr @_ZTVN2cv9videostab17WeightingDeblurerE, i64 16), ptr %0, align 8, !tbaa !24
  %4 = getelementptr inbounds nuw i8, ptr %0, i64 48
  tail call void @_ZN2cv3MatC2Ev(ptr noundef nonnull align 8 dereferenceable(96) %4) #19
  %5 = load i32, ptr %4, align 8, !tbaa !26
  %6 = and i32 %5, -4096
  %7 = or disjoint i32 %6, 5
  store i32 %7, ptr %4, align 8, !tbaa !26
  %8 = getelementptr inbounds nuw i8, ptr %0, i64 144
  tail call void @_ZN2cv3MatC2Ev(ptr noundef nonnull align 8 dereferenceable(96) %8) #19
  %9 = load i32, ptr %8, align 8, !tbaa !26
  %10 = and i32 %9, -4096
  %11 = or disjoint i32 %10, 5
  store i32 %11, ptr %8, align 8, !tbaa !26
  %12 = getelementptr inbounds nuw i8, ptr %0, i64 240
  tail call void @_ZN2cv3MatC2Ev(ptr noundef nonnull align 8 dereferenceable(96) %12) #19
  %13 = load i32, ptr %12, align 8, !tbaa !26
  %14 = and i32 %13, -4096
  %15 = or disjoint i32 %14, 5
  store i32 %15, ptr %12, align 8, !tbaa !26
  %16 = getelementptr inbounds nuw i8, ptr %0, i64 336
  tail call void @_ZN2cv3MatC2Ev(ptr noundef nonnull align 8 dereferenceable(96) %16) #19
  %17 = load i32, ptr %16, align 8, !tbaa !26
  %18 = and i32 %17, -4096
  %19 = or disjoint i32 %18, 5
  store i32 %19, ptr %16, align 8, !tbaa !26
  %20 = getelementptr inbounds nuw i8, ptr %0, i64 40
  store float 0x3FB99999A0000000, ptr %20, align 8, !tbaa !33
  ret void
}